target datalayout = "e-m:e-p270:32:32-p271:32:32-p272:64:64-i64:64-i128:128-f80:128-n8:16:32:64-S128"
target triple = "x86_64-pc-linux-gnu"

%"class.std::filesystem::__cxx11::path" = type { %"class.std::__cxx11::basic_string", %"struct.std::filesystem::__cxx11::path::_List" }
%"class.std::__cxx11::basic_string" = type { %"struct.std::__cxx11::basic_string<char>::_Alloc_hider", i64, %union.anon.3 }
%"struct.std::__cxx11::basic_string<char>::_Alloc_hider" = type { ptr }
%union.anon.3 = type { i64, [8 x i8] }
%"struct.std::filesystem::__cxx11::path::_List" = type { %"class.std::unique_ptr" }
%"class.std::unique_ptr" = type { %"struct.std::__uniq_ptr_data" }
%"struct.std::__uniq_ptr_data" = type { %"class.std::__uniq_ptr_impl" }
%"class.std::__uniq_ptr_impl" = type { %"class.std::tuple" }
%"class.std::tuple" = type { %"struct.std::_Tuple_impl" }
%"struct.std::_Tuple_impl" = type { %"struct.std::_Head_base.5" }
%"struct.std::_Head_base.5" = type { ptr }
%struct.t_trxframe = type { i32, i8, i32, i8, i64, i8, float, i8, i8, float, i32, i8, ptr, i8, float, i8, ptr, i8, ptr, i8, ptr, i8, [3 x [3 x float]], i8, i32, i8, ptr }

@stderr = external global ptr, align 8
@.str.64 = private unnamed_addr constant [38 x i8] c"Comparing trajectory files %s and %s\0A\00", align 1
@stdout = external global ptr, align 8
@.str.65 = private unnamed_addr constant [34 x i8] c"\0AEnd of file on %s but not on %s\0A\00", align 1
@.str.66 = private unnamed_addr constant [28 x i8] c"\0ABoth files read correctly\0A\00", align 1

; Function Attrs: mustprogress uwtable
define internal void @_ZL8comp_trxPK16gmx_output_env_tPKcS3_bff(ptr noundef %0, ptr noundef %1, ptr noundef %2, i1 noundef zeroext %3, float noundef %4, float noundef %5) #0 personality ptr @__gxx_personality_v0 {
  %7 = alloca ptr, align 8
  %8 = alloca ptr, align 8
  %9 = alloca ptr, align 8
  %10 = alloca i8, align 1
  %11 = alloca float, align 4
  %12 = alloca float, align 4
  %13 = alloca i32, align 4
  %14 = alloca [2 x ptr], align 16
  %15 = alloca [2 x %struct.t_trxframe], align 16
  %16 = alloca [2 x ptr], align 16
  %17 = alloca [2 x i8], align 1
  %18 = alloca %"class.std::filesystem::__cxx11::path", align 8
  %19 = alloca ptr, align 8
  %20 = alloca i32, align 4
  store ptr %0, ptr %7, align 8, !tbaa !37
  store ptr %1, ptr %8, align 8, !tbaa !24
  store ptr %2, ptr %9, align 8, !tbaa !24
  %21 = zext i1 %3 to i8
  store i8 %21, ptr %10, align 1, !tbaa !27
  store float %4, ptr %11, align 4, !tbaa !25
  store float %5, ptr %12, align 4, !tbaa !25
  call void @llvm.lifetime.start.p0(i64 4, ptr %13) #18
  call void @llvm.lifetime.start.p0(i64 16, ptr %14) #18
  call void @llvm.lifetime.start.p0(i64 352, ptr %15) #18
  call void @llvm.lifetime.start.p0(i64 16, ptr %16) #18
  call void @llvm.lifetime.start.p0(i64 2, ptr %17) #18
  %22 = load ptr, ptr %8, align 8, !tbaa !24
  %23 = getelementptr inbounds [2 x ptr], ptr %14, i64 0, i64 0
  store ptr %22, ptr %23, align 16, !tbaa !24
  %24 = load ptr, ptr %9, align 8, !tbaa !24
  %25 = getelementptr inbounds [2 x ptr], ptr %14, i64 0, i64 1
  store ptr %24, ptr %25, align 8, !tbaa !24
  %26 = load ptr, ptr @stderr, align 8, !tbaa !35
  %27 = load ptr, ptr %8, align 8, !tbaa !24
  %28 = load ptr, ptr %9, align 8, !tbaa !24
  %29 = call i32 (ptr, ptr, ...) @fprintf(ptr noundef %26, ptr noundef @.str.64, ptr noundef %27, ptr noundef %28) #18
  store i32 0, ptr %13, align 4, !tbaa !4
  br label %30

30:                                               ; preds = %50, %6
  %31 = load i32, ptr %13, align 4, !tbaa !4
  %32 = icmp slt i32 %31, 2
  br i1 %32, label %33, label %57

33:                                               ; preds = %30
  %34 = load ptr, ptr %7, align 8, !tbaa !37
  %35 = load i32, ptr %13, align 4, !tbaa !4
  %36 = sext i32 %35 to i64
  %37 = getelementptr inbounds [2 x ptr], ptr %16, i64 0, i64 %36
  call void @llvm.lifetime.start.p0(i64 40, ptr %18) #18
  %38 = load i32, ptr %13, align 4, !tbaa !4
  %39 = sext i32 %38 to i64
  %40 = getelementptr inbounds [2 x ptr], ptr %14, i64 0, i64 %39
  call void @_ZNSt10filesystem7__cxx114pathC2IPKcS1_EERKT_NS1_6formatE(ptr noundef nonnull align 8 dereferenceable(40) %18, ptr noundef nonnull align 8 dereferenceable(8) %40, i8 noundef zeroext 2)
  %41 = load i32, ptr %13, align 4, !tbaa !4
  %42 = sext i32 %41 to i64
  %43 = getelementptr inbounds [2 x %struct.t_trxframe], ptr %15, i64 0, i64 %42
  %44 = invoke noundef zeroext i1 @_Z16read_first_framePK16gmx_output_env_tPP11t_trxstatusRKNSt10filesystem7__cxx114pathEP10t_trxframei(ptr noundef %34, ptr noundef %37, ptr noundef nonnull align 8 dereferenceable(40) %18, ptr noundef %43, i32 noundef 21)
          to label %45 unwind label %53

45:                                               ; preds = %33
  %46 = load i32, ptr %13, align 4, !tbaa !4
  %47 = sext i32 %46 to i64
  %48 = getelementptr inbounds [2 x i8], ptr %17, i64 0, i64 %47
  %49 = zext i1 %44 to i8
  store i8 %49, ptr %48, align 1, !tbaa !27
  call void @_ZNSt10filesystem7__cxx114pathD2Ev(ptr noundef nonnull align 8 dereferenceable(40) %18) #18
  call void @llvm.lifetime.end.p0(i64 40, ptr %18) #18
  br label %50

50:                                               ; preds = %45
  %51 = load i32, ptr %13, align 4, !tbaa !4
  %52 = add nsw i32 %51, 1
  store i32 %52, ptr %13, align 4, !tbaa !4
  br label %30, !llvm.loop !46

53:                                               ; preds = %33
  %54 = landingpad { ptr, i32 }
          cleanup
  %55 = extractvalue { ptr, i32 } %54, 0
  store ptr %55, ptr %19, align 8
  %56 = extractvalue { ptr, i32 } %54, 1
  store i32 %56, ptr %20, align 4
  call void @_ZNSt10filesystem7__cxx114pathD2Ev(ptr noundef nonnull align 8 dereferenceable(40) %18) #18
  call void @llvm.lifetime.end.p0(i64 40, ptr %18) #18
  call void @llvm.lifetime.end.p0(i64 2, ptr %17) #18
  call void @llvm.lifetime.end.p0(i64 16, ptr %16) #18
  call void @llvm.lifetime.end.p0(i64 352, ptr %15) #18
  call void @llvm.lifetime.end.p0(i64 16, ptr %14) #18
  call void @llvm.lifetime.end.p0(i64 4, ptr %13) #18
  br label %155

57:                                               ; preds = %30
  %58 = getelementptr inbounds [2 x i8], ptr %17, i64 0, i64 0
  %59 = load i8, ptr %58, align 1, !tbaa !27, !range !39, !noundef !40
  %60 = trunc i8 %59 to i1
  br i1 %60, label %61, label %143

61:                                               ; preds = %57
  %62 = getelementptr inbounds [2 x i8], ptr %17, i64 0, i64 1
  %63 = load i8, ptr %62, align 1, !tbaa !27, !range !39, !noundef !40
  %64 = trunc i8 %63 to i1
  br i1 %64, label %65, label %143

65:                                               ; preds = %61
  br label %66

66:                                               ; preds = %103, %65
  %67 = load ptr, ptr @stdout, align 8, !tbaa !35
  %68 = getelementptr inbounds [2 x %struct.t_trxframe], ptr %15, i64 0, i64 0
  %69 = getelementptr inbounds [2 x %struct.t_trxframe], ptr %15, i64 0, i64 1
  %70 = load i8, ptr %10, align 1, !tbaa !27, !range !39, !noundef !40
  %71 = trunc i8 %70 to i1
  %72 = load float, ptr %11, align 4, !tbaa !25
  %73 = load float, ptr %12, align 4, !tbaa !25
  call void @_Z10comp_frameP8_IO_FILEP10t_trxframeS2_bff(ptr noundef %67, ptr noundef %68, ptr noundef %69, i1 noundef zeroext %71, float noundef %72, float noundef %73)
  store i32 0, ptr %13, align 4, !tbaa !4
  br label %74

74:                                               ; preds = %91, %66
  %75 = load i32, ptr %13, align 4, !tbaa !4
  %76 = icmp slt i32 %75, 2
  br i1 %76, label %77, label %94

77:                                               ; preds = %74
  %78 = load ptr, ptr %7, align 8, !tbaa !37
  %79 = load i32, ptr %13, align 4, !tbaa !4
  %80 = sext i32 %79 to i64
  %81 = getelementptr inbounds [2 x ptr], ptr %16, i64 0, i64 %80
  %82 = load ptr, ptr %81, align 8, !tbaa !48
  %83 = load i32, ptr %13, align 4, !tbaa !4
  %84 = sext i32 %83 to i64
  %85 = getelementptr inbounds [2 x %struct.t_trxframe], ptr %15, i64 0, i64 %84
  %86 = call noundef zeroext i1 @_Z15read_next_framePK16gmx_output_env_tP11t_trxstatusP10t_trxframe(ptr noundef %78, ptr noundef %82, ptr noundef %85)
  %87 = load i32, ptr %13, align 4, !tbaa !4
  %88 = sext i32 %87 to i64
  %89 = getelementptr inbounds [2 x i8], ptr %17, i64 0, i64 %88
  %90 = zext i1 %86 to i8
  store i8 %90, ptr %89, align 1, !tbaa !27
  br label %91

91:                                               ; preds = %77
  %92 = load i32, ptr %13, align 4, !tbaa !4
  %93 = add nsw i32 %92, 1
  store i32 %93, ptr %13, align 4, !tbaa !4
  br label %74, !llvm.loop !50

94:                                               ; preds = %74
  br label %95

95:                                               ; preds = %94
  %96 = getelementptr inbounds [2 x i8], ptr %17, i64 0, i64 0
  %97 = load i8, ptr %96, align 1, !tbaa !27, !range !39, !noundef !40
  %98 = trunc i8 %97 to i1
  br i1 %98, label %99, label %103

99:                                               ; preds = %95
  %100 = getelementptr inbounds [2 x i8], ptr %17, i64 0, i64 1
  %101 = load i8, ptr %100, align 1, !tbaa !27, !range !39, !noundef !40
  %102 = trunc i8 %101 to i1
  br label %103

103:                                              ; preds = %99, %95
  %104 = phi i1 [ false, %95 ], [ %102, %99 ]
  br i1 %104, label %66, label %105, !llvm.loop !51

105:                                              ; preds = %103
  store i32 0, ptr %13, align 4, !tbaa !4
  br label %106

106:                                              ; preds = %139, %105
  %107 = load i32, ptr %13, align 4, !tbaa !4
  %108 = icmp slt i32 %107, 2
  br i1 %108, label %109, label %142

109:                                              ; preds = %106
  %110 = load i32, ptr %13, align 4, !tbaa !4
  %111 = sext i32 %110 to i64
  %112 = getelementptr inbounds [2 x i8], ptr %17, i64 0, i64 %111
  %113 = load i8, ptr %112, align 1, !tbaa !27, !range !39, !noundef !40
  %114 = trunc i8 %113 to i1
  br i1 %114, label %115, label %134

115:                                              ; preds = %109
  %116 = load i32, ptr %13, align 4, !tbaa !4
  %117 = sub nsw i32 1, %116
  %118 = sext i32 %117 to i64
  %119 = getelementptr inbounds [2 x i8], ptr %17, i64 0, i64 %118
  %120 = load i8, ptr %119, align 1, !tbaa !27, !range !39, !noundef !40
  %121 = trunc i8 %120 to i1
  br i1 %121, label %134, label %122

122:                                              ; preds = %115
  %123 = load ptr, ptr @stdout, align 8, !tbaa !35
  %124 = load i32, ptr %13, align 4, !tbaa !4
  %125 = sub nsw i32 1, %124
  %126 = sext i32 %125 to i64
  %127 = getelementptr inbounds [2 x ptr], ptr %14, i64 0, i64 %126
  %128 = load ptr, ptr %127, align 8, !tbaa !24
  %129 = load i32, ptr %13, align 4, !tbaa !4
  %130 = sext i32 %129 to i64
  %131 = getelementptr inbounds [2 x ptr], ptr %14, i64 0, i64 %130
  %132 = load ptr, ptr %131, align 8, !tbaa !24
  %133 = call i32 (ptr, ptr, ...) @fprintf(ptr noundef %123, ptr noundef @.str.65, ptr noundef %128, ptr noundef %132) #18
  br label %134

134:                                              ; preds = %122, %115, %109
  %135 = load i32, ptr %13, align 4, !tbaa !4
  %136 = sext i32 %135 to i64
  %137 = getelementptr inbounds [2 x ptr], ptr %16, i64 0, i64 %136
  %138 = load ptr, ptr %137, align 8, !tbaa !48
  call void @_Z9close_trxP11t_trxstatus(ptr noundef %138)
  br label %139

139:                                              ; preds = %134
  %140 = load i32, ptr %13, align 4, !tbaa !4
  %141 = add nsw i32 %140, 1
  store i32 %141, ptr %13, align 4, !tbaa !4
  br label %106, !llvm.loop !52

142:                                              ; preds = %106
  br label %143

143:                                              ; preds = %142, %61, %57
  %144 = getelementptr inbounds [2 x i8], ptr %17, i64 0, i64 0
  %145 = load i8, ptr %144, align 1, !tbaa !27, !range !39, !noundef !40
  %146 = trunc i8 %145 to i1
  br i1 %146, label %154, label %147

147:                                              ; preds = %143
  %148 = getelementptr inbounds [2 x i8], ptr %17, i64 0, i64 1
  %149 = load i8, ptr %148, align 1, !tbaa !27, !range !39, !noundef !40
  %150 = trunc i8 %149 to i1
  br i1 %150, label %154, label %151

151:                                              ; preds = %147
  %152 = load ptr, ptr @stdout, align 8, !tbaa !35
  %153 = call i32 (ptr, ptr, ...) @fprintf(ptr noundef %152, ptr noundef @.str.66) #18
  br label %154

154:                                              ; preds = %151, %147, %143
  call void @llvm.lifetime.end.p0(i64 2, ptr %17) #18
  call void @llvm.lifetime.end.p0(i64 16, ptr %16) #18
  call void @llvm.lifetime.end.p0(i64 352, ptr %15) #18
  call void @llvm.lifetime.end.p0(i64 16, ptr %14) #18
  call void @llvm.lifetime.end.p0(i64 4, ptr %13) #18
  ret void

155:                                              ; preds = %53
  %156 = load ptr, ptr %19, align 8
  %157 = load i32, ptr %20, align 4
  %158 = insertvalue { ptr, i32 } poison, ptr %156, 0
  %159 = insertvalue { ptr, i32 } %158, i32 %157, 1
  resume { ptr, i32 } %159
}