; Function Attrs: cold mustprogress uwtable
define internal fastcc void @_ZL8comp_trxPK16gmx_output_env_tPKcS3_bff(ptr noundef %0, ptr noundef nonnull %1, ptr noundef nonnull %2, i1 noundef zeroext %3, float noundef %4, float noundef %5) unnamed_addr #6 personality ptr @__gxx_personality_v0 {
  %7 = alloca [2 x ptr], align 16
  %8 = alloca [2 x %struct.t_trxframe], align 16
  %9 = alloca [2 x ptr], align 16
  %10 = alloca [2 x i8], align 1
  %11 = alloca %"class.std::filesystem::__cxx11::path", align 8
  call void @llvm.lifetime.start.p0(i64 16, ptr nonnull %7) #20
  call void @llvm.lifetime.start.p0(i64 352, ptr nonnull %8) #20
  call void @llvm.lifetime.start.p0(i64 16, ptr nonnull %9) #20
  call void @llvm.lifetime.start.p0(i64 2, ptr nonnull %10) #20
  store ptr %1, ptr %7, align 16, !tbaa !21
  %12 = getelementptr inbounds nuw i8, ptr %7, i64 8
  store ptr %2, ptr %12, align 8, !tbaa !21
  %13 = load ptr, ptr @stderr, align 8, !tbaa !32
  %14 = tail call i32 (ptr, ptr, ...) @fprintf(ptr noundef %13, ptr noundef nonnull @.str.64, ptr noundef nonnull %1, ptr noundef nonnull %2) #24
  %15 = getelementptr inbounds nuw i8, ptr %11, i64 32
  %16 = getelementptr inbounds nuw i8, ptr %11, i64 16
  %17 = getelementptr inbounds nuw i8, ptr %11, i64 8
  %indvars.iv.sroa.gep40 = getelementptr inbounds nuw i8, ptr %10, i64 1
  %indvars.iv36.sroa.gep = getelementptr inbounds nuw i8, ptr %10, i64 1
  %indvars.iv.sroa.gep44 = getelementptr inbounds nuw i8, ptr %9, i64 8
  %indvars.iv36.sroa.gep46 = getelementptr inbounds nuw i8, ptr %9, i64 8
  %indvars.iv.sroa.gep50 = getelementptr inbounds nuw i8, ptr %8, i64 176
  %indvars.iv.sroa.gep53 = getelementptr inbounds nuw i8, ptr %7, i64 8
  %indvars.iv36.sroa.gep55 = getelementptr inbounds nuw i8, ptr %7, i64 8
  br label %18

18:                                               ; preds = %6, %_ZNSt10filesystem7__cxx114pathD2Ev.exit
  %19 = phi i1 [ true, %6 ], [ false, %_ZNSt10filesystem7__cxx114pathD2Ev.exit ]
  %indvars.iv.sroa.phi = phi ptr [ %10, %6 ], [ %indvars.iv.sroa.gep40, %_ZNSt10filesystem7__cxx114pathD2Ev.exit ]
  %indvars.iv.sroa.phi42 = phi ptr [ %9, %6 ], [ %indvars.iv.sroa.gep44, %_ZNSt10filesystem7__cxx114pathD2Ev.exit ]
  %indvars.iv.sroa.phi48 = phi ptr [ %8, %6 ], [ %indvars.iv.sroa.gep50, %_ZNSt10filesystem7__cxx114pathD2Ev.exit ]
  %indvars.iv.sroa.phi51 = phi ptr [ %7, %6 ], [ %indvars.iv.sroa.gep53, %_ZNSt10filesystem7__cxx114pathD2Ev.exit ]
  call void @llvm.lifetime.start.p0(i64 40, ptr nonnull %11) #20
  call void @_ZNSt10filesystem7__cxx114pathC2IPKcS1_EERKT_NS1_6formatE(ptr noundef nonnull align 8 dereferenceable(40) %11, ptr noundef nonnull align 8 dereferenceable(8) %indvars.iv.sroa.phi51, i8 noundef zeroext 2)
  %20 = invoke noundef zeroext i1 @_Z16read_first_framePK16gmx_output_env_tPP11t_trxstatusRKNSt10filesystem7__cxx114pathEP10t_trxframei(ptr noundef %0, ptr noundef nonnull %indvars.iv.sroa.phi42, ptr noundef nonnull align 8 dereferenceable(40) %11, ptr noundef nonnull %indvars.iv.sroa.phi48, i32 noundef 21)
          to label %21 unwind label %31

21:                                               ; preds = %18
  %22 = zext i1 %20 to i8
  store i8 %22, ptr %indvars.iv.sroa.phi, align 1, !tbaa !24
  %23 = load ptr, ptr %15, align 8, !tbaa !44
  %.not.i.i.i = icmp eq ptr %23, null
  br i1 %.not.i.i.i, label %_ZNSt10filesystem7__cxx114path5_ListD2Ev.exit.i, label %24

24:                                               ; preds = %21
  call void @_ZNKSt10filesystem7__cxx114path5_List13_Impl_deleterclEPNS2_5_ImplE(ptr noundef nonnull align 8 dereferenceable(8) %15, ptr noundef nonnull %23) #20
  br label %_ZNSt10filesystem7__cxx114path5_ListD2Ev.exit.i

_ZNSt10filesystem7__cxx114path5_ListD2Ev.exit.i:  ; preds = %24, %21
  store ptr null, ptr %15, align 8, !tbaa !44
  %25 = load ptr, ptr %11, align 8, !tbaa !46
  %26 = icmp eq ptr %25, %16
  br i1 %26, label %_ZNKSt7__cxx1112basic_stringIcSt11char_traitsIcESaIcEE11_M_is_localEv.exit.thread.i.i.i, label %_ZNKSt7__cxx1112basic_stringIcSt11char_traitsIcESaIcEE11_M_is_localEv.exit.i.i.i

_ZNKSt7__cxx1112basic_stringIcSt11char_traitsIcESaIcEE11_M_is_localEv.exit.thread.i.i.i: ; preds = %_ZNSt10filesystem7__cxx114path5_ListD2Ev.exit.i
  %27 = load i64, ptr %17, align 8, !tbaa !49
  %28 = icmp ult i64 %27, 16
  call void @llvm.assume(i1 %28)
  br label %_ZNSt10filesystem7__cxx114pathD2Ev.exit

_ZNKSt7__cxx1112basic_stringIcSt11char_traitsIcESaIcEE11_M_is_localEv.exit.i.i.i: ; preds = %_ZNSt10filesystem7__cxx114path5_ListD2Ev.exit.i
  %29 = load i64, ptr %16, align 8, !tbaa !30
  %30 = add i64 %29, 1
  call void @_ZdlPvm(ptr noundef %25, i64 noundef %30) #22
  br label %_ZNSt10filesystem7__cxx114pathD2Ev.exit

_ZNSt10filesystem7__cxx114pathD2Ev.exit:          ; preds = %_ZNKSt7__cxx1112basic_stringIcSt11char_traitsIcESaIcEE11_M_is_localEv.exit.thread.i.i.i, %_ZNKSt7__cxx1112basic_stringIcSt11char_traitsIcESaIcEE11_M_is_localEv.exit.i.i.i
  call void @llvm.lifetime.end.p0(i64 40, ptr nonnull %11) #20
  br i1 %19, label %18, label %33, !llvm.loop !219

31:                                               ; preds = %18
  %32 = landingpad { ptr, i32 }
          cleanup
  call void @_ZNSt10filesystem7__cxx114pathD2Ev(ptr noundef nonnull align 8 dereferenceable(40) %11) #20
  call void @llvm.lifetime.end.p0(i64 40, ptr nonnull %11) #20
  call void @llvm.lifetime.end.p0(i64 2, ptr nonnull %10) #20
  call void @llvm.lifetime.end.p0(i64 16, ptr nonnull %9) #20
  call void @llvm.lifetime.end.p0(i64 352, ptr nonnull %8) #20
  call void @llvm.lifetime.end.p0(i64 16, ptr nonnull %7) #20
  resume { ptr, i32 } %32

33:                                               ; preds = %_ZNSt10filesystem7__cxx114pathD2Ev.exit
  %34 = load i8, ptr %10, align 1, !tbaa !24, !range !36, !noundef !37
  %35 = trunc nuw i8 %34 to i1
  br i1 %35, label %36, label %.loopexit.thread39

36:                                               ; preds = %33
  %37 = getelementptr inbounds nuw i8, ptr %10, i64 1
  %38 = load i8, ptr %37, align 1, !tbaa !24, !range !36, !noundef !37
  %39 = trunc nuw i8 %38 to i1
  br i1 %39, label %.preheader28, label %.loopexit.thread

.preheader28:                                     ; preds = %36
  %40 = getelementptr inbounds nuw i8, ptr %8, i64 176
  %41 = getelementptr inbounds nuw i8, ptr %9, i64 8
  %42 = getelementptr inbounds nuw i8, ptr %8, i64 176
  %43 = getelementptr inbounds nuw i8, ptr %10, i64 1
  br label %.critedge

.critedge:                                        ; preds = %.preheader28, %.critedge
  %44 = load ptr, ptr @stdout, align 8, !tbaa !32
  call void @_Z10comp_frameP8_IO_FILEP10t_trxframeS2_bff(ptr noundef %44, ptr noundef nonnull %8, ptr noundef nonnull %40, i1 noundef zeroext %3, float noundef %4, float noundef %5)
  %45 = load ptr, ptr %9, align 16, !tbaa !194
  %46 = call noundef zeroext i1 @_Z15read_next_framePK16gmx_output_env_tP11t_trxstatusP10t_trxframe(ptr noundef %0, ptr noundef %45, ptr noundef nonnull %8)
  %47 = zext i1 %46 to i8
  %48 = load ptr, ptr %41, align 8, !tbaa !194
  %49 = call noundef zeroext i1 @_Z15read_next_framePK16gmx_output_env_tP11t_trxstatusP10t_trxframe(ptr noundef %0, ptr noundef %48, ptr noundef nonnull %42)
  %50 = zext i1 %49 to i8
  %51 = and i1 %49, %46
  br i1 %51, label %.critedge, label %.preheader.preheader, !llvm.loop !220

.preheader.preheader:                             ; preds = %.critedge
  store i8 %47, ptr %10, align 1
  store i8 %50, ptr %43, align 1
  br label %.preheader

.preheader:                                       ; preds = %.preheader.preheader, %65
  %52 = phi i1 [ false, %65 ], [ true, %.preheader.preheader ]
  %indvars.iv36.sroa.phi = phi ptr [ %indvars.iv36.sroa.gep, %65 ], [ %10, %.preheader.preheader ]
  %indvars.iv36.sroa.phi45 = phi ptr [ %indvars.iv36.sroa.gep46, %65 ], [ %9, %.preheader.preheader ]
  %indvars.iv36.sroa.phi54 = phi ptr [ %indvars.iv36.sroa.gep55, %65 ], [ %7, %.preheader.preheader ]
  %indvars.iv36 = phi i64 [ 0, %65 ], [ 1, %.preheader.preheader ]
  %53 = load i8, ptr %indvars.iv36.sroa.phi, align 1, !tbaa !24, !range !36, !noundef !37
  %54 = trunc nuw i8 %53 to i1
  br i1 %54, label %55, label %65

55:                                               ; preds = %.preheader
  %56 = getelementptr inbounds nuw [2 x i8], ptr %10, i64 0, i64 %indvars.iv36
  %57 = load i8, ptr %56, align 1, !tbaa !24, !range !36, !noundef !37
  %58 = trunc nuw i8 %57 to i1
  br i1 %58, label %65, label %59

59:                                               ; preds = %55
  %60 = load ptr, ptr @stdout, align 8, !tbaa !32
  %61 = getelementptr inbounds nuw [2 x ptr], ptr %7, i64 0, i64 %indvars.iv36
  %62 = load ptr, ptr %61, align 8, !tbaa !21
  %63 = load ptr, ptr %indvars.iv36.sroa.phi54, align 8, !tbaa !21
  %64 = call i32 (ptr, ptr, ...) @fprintf(ptr noundef %60, ptr noundef nonnull @.str.65, ptr noundef %62, ptr noundef %63) #20
  br label %65

65:                                               ; preds = %59, %55, %.preheader
  %66 = load ptr, ptr %indvars.iv36.sroa.phi45, align 8, !tbaa !194
  call void @_Z9close_trxP11t_trxstatus(ptr noundef %66)
  br i1 %52, label %.preheader, label %.loopexit, !llvm.loop !221

.loopexit:                                        ; preds = %65
  br i1 %46, label %.loopexit.thread, label %.loopexit.thread39

.loopexit.thread39:                               ; preds = %33, %.loopexit
  %67 = getelementptr inbounds nuw i8, ptr %10, i64 1
  %68 = load i8, ptr %67, align 1, !tbaa !24, !range !36, !noundef !37
  %69 = trunc nuw i8 %68 to i1
  br i1 %69, label %.loopexit.thread, label %70

70:                                               ; preds = %.loopexit.thread39
  %71 = load ptr, ptr @stdout, align 8, !tbaa !32
  %72 = call i64 @fwrite(ptr nonnull @.str.66, i64 27, i64 1, ptr %71)
  br label %.loopexit.thread

.loopexit.thread:                                 ; preds = %36, %70, %.loopexit.thread39, %.loopexit
  call void @llvm.lifetime.end.p0(i64 2, ptr nonnull %10) #20
  call void @llvm.lifetime.end.p0(i64 16, ptr nonnull %9) #20
  call void @llvm.lifetime.end.p0(i64 352, ptr nonnull %8) #20
  call void @llvm.lifetime.end.p0(i64 16, ptr nonnull %7) #20
  ret void
}